target datalayout = "e-m:e-p270:32:32-p271:32:32-p272:64:64-i64:64-i128:128-f80:128-n8:16:32:64-S128"
target triple = "x86_64-pc-linux-gnu"

%class.QString = type { ptr }
%struct.QMetaObject = type { %struct.anon }
%struct.anon = type { %"struct.QMetaObject::SuperData", ptr, ptr, ptr, ptr, ptr }
%"struct.QMetaObject::SuperData" = type { ptr }

@.str.10 = private unnamed_addr constant [4 x i8] c"3DS\00", align 1
@_ZN17ExtraMeshIOPlugin16staticMetaObjectE = external global %struct.QMetaObject, align 8

; Function Attrs: mustprogress nounwind uwtable
define linkonce_odr noundef i32 @_ZN3vcg3tri2io11Exporter3DSI6CMeshOE23GetExportMaskCapabilityEv() #4 comdat align 2 {
  %1 = alloca i32, align 4
  store i32 0, ptr %1, align 4
  %2 = load i32, ptr %1, align 4
  %3 = or i32 %2, 256
  store i32 %3, ptr %1, align 4
  %4 = load i32, ptr %1, align 4
  %5 = or i32 %4, 1024
  store i32 %5, ptr %1, align 4
  %6 = load i32, ptr %1, align 4
  %7 = or i32 %6, 4096
  store i32 %7, ptr %1, align 4
  %8 = load i32, ptr %1, align 4
  %9 = or i32 %8, 16384
  store i32 %9, ptr %1, align 4
  %10 = load i32, ptr %1, align 4
  ret i32 %10
}

; Function Attrs: mustprogress uwtable
define linkonce_odr void @_ZN17ExtraMeshIOPlugin2trEPKcS1_i(ptr dead_on_unwind noalias writable sret(%class.QString) align 8 %0, ptr noundef %1, ptr noundef %2, i32 noundef %3) #5 comdat align 2 {
  %5 = alloca ptr, align 8
  %6 = alloca ptr, align 8
  %7 = alloca ptr, align 8
  %8 = alloca i32, align 4
  store ptr %0, ptr %5, align 8
  store ptr %1, ptr %6, align 8
  store ptr %2, ptr %7, align 8
  store i32 %3, ptr %8, align 4
  %9 = load ptr, ptr %6, align 8
  %10 = load ptr, ptr %7, align 8
  %11 = load i32, ptr %8, align 4
  call void @_ZNK11QMetaObject2trEPKcS1_i(ptr dead_on_unwind writable sret(%class.QString) align 8 %0, ptr noundef nonnull align 8 dereferenceable(48) @_ZN17ExtraMeshIOPlugin16staticMetaObjectE, ptr noundef %9, ptr noundef %10, i32 noundef %11)
  ret void
}

; Function Attrs: mustprogress uwtable
define linkonce_odr void @_ZNKR7QString7toUpperEv(ptr dead_on_unwind noalias writable sret(%class.QString) align 8 %0, ptr noundef nonnull align 8 dereferenceable(8) %1) #5 comdat align 2 {
  %3 = alloca ptr, align 8
  %4 = alloca ptr, align 8
  store ptr %0, ptr %3, align 8
  store ptr %1, ptr %4, align 8
  %5 = load ptr, ptr %4, align 8
  call void @_ZN7QString14toUpper_helperERKS_(ptr dead_on_unwind writable sret(%class.QString) align 8 %0, ptr noundef nonnull align 8 dereferenceable(8) %5)
  ret void
}

; Function Attrs: mustprogress uwtable
define void @_ZNK17ExtraMeshIOPlugin20exportMaskCapabilityERK7QStringRiS3_(ptr noundef nonnull align 8 dereferenceable(32) %0, ptr noundef nonnull align 8 dereferenceable(8) %1, ptr noundef nonnull align 4 dereferenceable(4) %2, ptr noundef nonnull align 4 dereferenceable(4) %3) unnamed_addr #5 align 2 personality ptr @__gxx_personality_v0 {
  %5 = alloca ptr, align 8
  %6 = alloca ptr, align 8
  %7 = alloca ptr, align 8
  %8 = alloca ptr, align 8
  %9 = alloca %class.QString, align 8
  %10 = alloca %class.QString, align 8
  %11 = alloca ptr, align 8
  %12 = alloca i32, align 4
  store ptr %0, ptr %5, align 8
  store ptr %1, ptr %6, align 8
  store ptr %2, ptr %7, align 8
  store ptr %3, ptr %8, align 8
  %13 = load ptr, ptr %6, align 8
  call void @_ZNKR7QString7toUpperEv(ptr dead_on_unwind writable sret(%class.QString) align 8 %9, ptr noundef nonnull align 8 dereferenceable(8) %13)
  invoke void @_ZN17ExtraMeshIOPlugin2trEPKcS1_i(ptr dead_on_unwind writable sret(%class.QString) align 8 %10, ptr noundef @.str.10, ptr noundef null, i32 noundef -1)
          to label %14 unwind label %20

14:                                               ; preds = %4
  %15 = call noundef zeroext i1 @_ZeqRK7QStringS1_(ptr noundef nonnull align 8 dereferenceable(8) %9, ptr noundef nonnull align 8 dereferenceable(8) %10) #3
  call void @_ZN7QStringD2Ev(ptr noundef nonnull align 8 dereferenceable(8) %10) #3
  call void @_ZN7QStringD2Ev(ptr noundef nonnull align 8 dereferenceable(8) %9) #3
  br i1 %15, label %16, label %24

16:                                               ; preds = %14
  %17 = call noundef i32 @_ZN3vcg3tri2io11Exporter3DSI6CMeshOE23GetExportMaskCapabilityEv()
  %18 = load ptr, ptr %8, align 8
  store i32 %17, ptr %18, align 4
  %19 = load ptr, ptr %7, align 8
  store i32 %17, ptr %19, align 4
  br label %24

20:                                               ; preds = %4
  %21 = landingpad { ptr, i32 }
          cleanup
  %22 = extractvalue { ptr, i32 } %21, 0
  store ptr %22, ptr %11, align 8
  %23 = extractvalue { ptr, i32 } %21, 1
  store i32 %23, ptr %12, align 4
  call void @_ZN7QStringD2Ev(ptr noundef nonnull align 8 dereferenceable(8) %9) #3
  br label %25

24:                                               ; preds = %16, %14
  ret void

25:                                               ; preds = %20
  %26 = load ptr, ptr %11, align 8
  %27 = load i32, ptr %12, align 4
  %28 = insertvalue { ptr, i32 } poison, ptr %26, 0
  %29 = insertvalue { ptr, i32 } %28, i32 %27, 1
  resume { ptr, i32 } %29
}